target datalayout = "e-m:e-p270:32:32-p271:32:32-p272:64:64-i64:64-i128:128-f80:128-n8:16:32:64-S128"
target triple = "x86_64-pc-linux-gnu"

%struct.uv__allocator_t = type { ptr, ptr, ptr, ptr }

@uv__allocator = internal global %struct.uv__allocator_t { ptr @malloc, ptr @realloc, ptr @calloc, ptr @free }, align 8

; Function Attrs: nounwind uwtable
define dso_local void @uv__free(ptr noundef %0) #0 {
  %2 = alloca ptr, align 8
  %3 = alloca i32, align 4
  store ptr %0, ptr %2, align 8, !tbaa !14
  call void @llvm.lifetime.start.p0(i64 4, ptr %3) #13
  %4 = call ptr @__errno_location() #15
  %5 = load i32, ptr %4, align 4, !tbaa !15
  store i32 %5, ptr %3, align 4, !tbaa !15
  %6 = load ptr, ptr getelementptr inbounds nuw (%struct.uv__allocator_t, ptr @uv__allocator, i32 0, i32 3), align 8, !tbaa !17
  %7 = load ptr, ptr %2, align 8, !tbaa !14
  call void %6(ptr noundef %7)
  %8 = load i32, ptr %3, align 4, !tbaa !15
  %9 = call ptr @__errno_location() #15
  store i32 %8, ptr %9, align 4, !tbaa !15
  call void @llvm.lifetime.end.p0(i64 4, ptr %3) #13
  ret void
}

; Function Attrs: nounwind uwtable
define dso_local ptr @uv__malloc(i64 noundef %0) #0 {
  %2 = alloca ptr, align 8
  %3 = alloca i64, align 8
  store i64 %0, ptr %3, align 8, !tbaa !9
  %4 = load i64, ptr %3, align 8, !tbaa !9
  %5 = icmp ugt i64 %4, 0
  br i1 %5, label %6, label %10

6:                                                ; preds = %1
  %7 = load ptr, ptr @uv__allocator, align 8, !tbaa !11
  %8 = load i64, ptr %3, align 8, !tbaa !9
  %9 = call ptr %7(i64 noundef %8)
  store ptr %9, ptr %2, align 8
  br label %11

10:                                               ; preds = %1
  store ptr null, ptr %2, align 8
  br label %11

11:                                               ; preds = %10, %6
  %12 = load ptr, ptr %2, align 8
  ret ptr %12
}

; Function Attrs: nounwind uwtable
define dso_local ptr @uv_loop_new() #0 {
  %1 = alloca ptr, align 8
  %2 = alloca ptr, align 8
  %3 = alloca i32, align 4
  call void @llvm.lifetime.start.p0(i64 8, ptr %2) #13
  %4 = call ptr @uv__malloc(i64 noundef 848)
  store ptr %4, ptr %2, align 8, !tbaa !52
  %5 = load ptr, ptr %2, align 8, !tbaa !52
  %6 = icmp eq ptr %5, null
  br i1 %6, label %7, label %8

7:                                                ; preds = %0
  store ptr null, ptr %1, align 8
  store i32 1, ptr %3, align 4
  br label %16

8:                                                ; preds = %0
  %9 = load ptr, ptr %2, align 8, !tbaa !52
  %10 = call i32 @uv_loop_init(ptr noundef %9)
  %11 = icmp ne i32 %10, 0
  br i1 %11, label %12, label %14

12:                                               ; preds = %8
  %13 = load ptr, ptr %2, align 8, !tbaa !52
  call void @uv__free(ptr noundef %13)
  store ptr null, ptr %1, align 8
  store i32 1, ptr %3, align 4
  br label %16

14:                                               ; preds = %8
  %15 = load ptr, ptr %2, align 8, !tbaa !52
  store ptr %15, ptr %1, align 8
  store i32 1, ptr %3, align 4
  br label %16

16:                                               ; preds = %14, %12, %7
  call void @llvm.lifetime.end.p0(i64 8, ptr %2) #13
  %17 = load ptr, ptr %1, align 8
  ret ptr %17
}