; Function Attrs: nounwind uwtable
define dso_local ptr @uv_loop_new() local_unnamed_addr #0 {
  %1 = load ptr, ptr @uv__allocator.0, align 8, !tbaa !4
  %2 = tail call ptr %1(i64 noundef 848) #26
  %3 = icmp eq ptr %2, null
  br i1 %3, label %10, label %4

4:                                                ; preds = %0
  %5 = tail call i32 @uv_loop_init(ptr noundef nonnull %2) #26
  %.not = icmp eq i32 %5, 0
  br i1 %.not, label %10, label %6

6:                                                ; preds = %4
  %7 = tail call ptr @__errno_location() #27
  %8 = load i32, ptr %7, align 4, !tbaa !10
  %9 = load ptr, ptr @uv__allocator.3, align 8, !tbaa !12
  tail call void %9(ptr noundef nonnull %2) #26
  store i32 %8, ptr %7, align 4, !tbaa !10
  br label %10

10:                                               ; preds = %4, %0, %6
  %.0 = phi ptr [ null, %6 ], [ null, %0 ], [ %2, %4 ]
  ret ptr %.0
}